(dp1
S'peter'
p2
(i__main__
Contacts
p3
(dp4
S'phone'
p5
S'156'
p6
sS'name'
p7
S'peter'
p8
sS'mail'
p9
S'peter123@vmware.com'
p10
sbsS'tom'
p11
(i__main__
Contacts
p12
(dp13
g5
S'151'
p14
sg7
g11
sg9
S'tom@vmware.com'
p15
sbs.